target datalayout = "e-m:e-p270:32:32-p271:32:32-p272:64:64-i64:64-i128:128-f80:128-n8:16:32:64-S128"
target triple = "x86_64-pc-linux-gnu"

%struct.OSQPWorkspace_ = type { ptr, ptr, ptr, ptr, ptr, ptr, ptr, ptr, ptr, ptr, ptr, ptr, ptr, ptr, ptr, ptr, ptr, ptr, ptr, ptr, ptr, ptr, ptr, ptr, ptr, ptr, double, double, double, ptr, i64, i64, i64, i64, ptr }
%struct.OSQPScaling = type { double, ptr, ptr, double, ptr, ptr }

; Function Attrs: nounwind uwtable
define i64 @unscale_solution(ptr noundef %0, ptr noundef %1, ptr noundef %2, ptr noundef %3, ptr noundef %4) #0 {
  %6 = alloca ptr, align 8
  %7 = alloca ptr, align 8
  %8 = alloca ptr, align 8
  %9 = alloca ptr, align 8
  %10 = alloca ptr, align 8
  store ptr %0, ptr %6, align 8
  store ptr %1, ptr %7, align 8
  store ptr %2, ptr %8, align 8
  store ptr %3, ptr %9, align 8
  store ptr %4, ptr %10, align 8
  %11 = load ptr, ptr %6, align 8
  %12 = load ptr, ptr %8, align 8
  %13 = load ptr, ptr %10, align 8
  %14 = getelementptr inbounds %struct.OSQPWorkspace_, ptr %13, i32 0, i32 25
  %15 = load ptr, ptr %14, align 8
  %16 = getelementptr inbounds %struct.OSQPScaling, ptr %15, i32 0, i32 1
  %17 = load ptr, ptr %16, align 8
  call void @OSQPVectorf_ew_prod(ptr noundef %11, ptr noundef %12, ptr noundef %17)
  %18 = load ptr, ptr %7, align 8
  %19 = load ptr, ptr %9, align 8
  %20 = load ptr, ptr %10, align 8
  %21 = getelementptr inbounds %struct.OSQPWorkspace_, ptr %20, i32 0, i32 25
  %22 = load ptr, ptr %21, align 8
  %23 = getelementptr inbounds %struct.OSQPScaling, ptr %22, i32 0, i32 2
  %24 = load ptr, ptr %23, align 8
  call void @OSQPVectorf_ew_prod(ptr noundef %18, ptr noundef %19, ptr noundef %24)
  %25 = load ptr, ptr %7, align 8
  %26 = load ptr, ptr %10, align 8
  %27 = getelementptr inbounds %struct.OSQPWorkspace_, ptr %26, i32 0, i32 25
  %28 = load ptr, ptr %27, align 8
  %29 = getelementptr inbounds %struct.OSQPScaling, ptr %28, i32 0, i32 3
  %30 = load double, ptr %29, align 8
  call void @OSQPVectorf_mult_scalar(ptr noundef %25, double noundef %30)
  ret i64 0
}