; Function Attrs: nounwind uwtable
define noundef i64 @unscale_solution(ptr noundef %0, ptr noundef %1, ptr noundef %2, ptr noundef %3, ptr nocapture noundef readonly %4) local_unnamed_addr #1 {
  %6 = getelementptr inbounds i8, ptr %4, i64 200
  %7 = load ptr, ptr %6, align 8
  %8 = getelementptr inbounds i8, ptr %7, i64 8
  %9 = load ptr, ptr %8, align 8
  tail call void @OSQPVectorf_ew_prod(ptr noundef %0, ptr noundef %2, ptr noundef %9) #3
  %10 = load ptr, ptr %6, align 8
  %11 = getelementptr inbounds i8, ptr %10, i64 16
  %12 = load ptr, ptr %11, align 8
  tail call void @OSQPVectorf_ew_prod(ptr noundef %1, ptr noundef %3, ptr noundef %12) #3
  %13 = load ptr, ptr %6, align 8
  %14 = getelementptr inbounds i8, ptr %13, i64 24
  %15 = load double, ptr %14, align 8
  tail call void @OSQPVectorf_mult_scalar(ptr noundef %1, double noundef %15) #3
  ret i64 0
}